Certificate:
    Data:
        Version: 3 (0x2)
        Serial Number:
            ce:01:cf:54:73:ff:6b:e4:ee:19:4b:7f:87:8a:f8:95
    Signature Algorithm: sha256WithRSAEncryption
        Issuer: CN=RonSafe
        Validity
            Not Before: Dec 25 01:20:26 2025 GMT
            Not After : Dec  1 01:20:26 2125 GMT
        Subject: CN=lg_lixuaohu
        Subject Public Key Info:
            Public Key Algorithm: rsaEncryption
                Public-Key: (2048 bit)
                Modulus:
                    00:d8:53:eb:2d:6c:39:82:04:b0:bb:e7:7e:c6:ee:
                    16:da:62:75:e4:00:3f:12:f4:79:ad:d7:98:fd:27:
                    57:0b:03:b0:73:41:4c:1e:02:c9:41:55:53:9d:f7:
                    08:0d:26:82:27:02:00:84:b0:7c:fa:00:16:33:93:
                    8a:7d:3d:94:e7:a3:b2:0a:21:2d:82:88:6d:dc:05:
                    24:2a:bd:ed:00:12:7e:eb:8f:24:50:e9:34:8e:93:
                    00:c7:26:44:72:1d:e9:5c:7b:c2:ca:67:d2:5f:b0:
                    04:58:45:4d:ed:99:5e:69:27:40:87:19:15:23:5d:
                    27:7f:fe:05:9a:2f:dd:cc:6f:b4:bc:0d:5f:65:28:
                    35:c4:da:62:c7:9b:c9:4e:96:8e:52:49:cc:5e:44:
                    bf:b6:2a:3c:59:8c:64:88:45:a2:fe:00:bb:44:ff:
                    6c:5e:36:96:38:24:32:91:79:61:02:f9:ba:38:1c:
                    19:bf:4c:2e:bf:99:1b:9d:c9:6f:2a:79:92:37:bb:
                    74:b0:39:23:de:a3:43:79:b1:4c:ec:69:74:dc:8d:
                    03:48:cf:58:fc:d7:cb:ed:96:51:93:47:17:a9:b2:
                    0b:13:ae:b5:57:b5:fb:13:9e:8d:4d:ba:0f:43:e9:
                    6e:1f:cd:db:26:46:f0:53:47:17:db:11:95:50:f3:
                    d9:5f
                Exponent: 65537 (0x10001)
        X509v3 extensions:
            X509v3 Basic Constraints: 
                CA:FALSE
            X509v3 Subject Key Identifier: 
                14:FD:5A:3A:51:3A:49:EE:D0:4C:EC:BF:9E:4E:C9:08:26:77:FE:96
            X509v3 Authority Key Identifier: 
                keyid:73:89:58:BD:B7:DB:0E:FE:B2:B8:A8:EE:D9:0B:27:9C:25:3A:91:6F
                DirName:/CN=RonSafe
                serial:CB:D8:E4:FA:4A:4B:7C:08

            X509v3 Extended Key Usage: 
                TLS Web Client Authentication
            X509v3 Key Usage: 
                Digital Signature
    Signature Algorithm: sha256WithRSAEncryption
         64:52:2c:66:a6:bb:ee:cb:3a:0e:be:78:bc:97:ef:61:6c:0c:
         1e:a5:53:38:d5:0d:9c:d0:d4:28:07:ff:c7:3e:59:3b:49:dc:
         c2:49:a1:2d:d5:af:11:2a:75:1b:22:f2:53:19:c3:63:d4:0a:
         03:dd:ef:a9:c4:82:55:94:bf:21:72:30:0d:40:5d:5e:d4:74:
         f6:cd:b1:65:b6:53:84:9a:0f:4c:31:69:0a:6c:3a:24:59:4f:
         d5:43:42:a2:61:d1:17:0d:78:fc:3d:b4:28:42:36:f1:5e:78:
         13:18:f5:92:07:e9:db:e8:23:1a:e5:9b:c5:12:19:97:fe:a5:
         4e:7f:2a:84:7d:51:36:03:c1:ef:ed:d8:9b:40:82:01:ec:1b:
         78:94:0f:0b:c1:f4:db:83:32:f4:4b:cd:d0:a8:00:5e:ff:8c:
         f3:13:f9:33:51:4e:53:d9:69:ea:d5:05:fe:a1:d6:e6:1c:a3:
         50:b9:d1:10:f5:1a:72:bd:cd:57:70:bf:04:b6:0a:0d:9b:fc:
         2f:82:a9:47:58:3f:b3:3b:5c:1b:79:ea:17:33:ea:bd:8c:8a:
         d7:8b:1d:e1:1f:7a:c4:43:f2:ee:39:6c:10:e4:05:3d:93:15:
         a3:22:78:7e:07:26:61:82:49:3e:fe:18:58:09:3e:a5:ea:df:
         2a:46:15:88
-----BEGIN CERTIFICATE-----
MIIDSTCCAjGgAwIBAgIRAM4Bz1Rz/2vk7hlLf4eK+JUwDQYJKoZIhvcNAQELBQAw
EjEQMA4GA1UEAwwHUm9uU2FmZTAgFw0yNTEyMjUwMTIwMjZaGA8yMTI1MTIwMTAx
MjAyNlowFjEUMBIGA1UEAwwLbGdfbGl4dWFvaHUwggEiMA0GCSqGSIb3DQEBAQUA
A4IBDwAwggEKAoIBAQDYU+stbDmCBLC7537G7hbaYnXkAD8S9Hmt15j9J1cLA7Bz
QUweAslBVVOd9wgNJoInAgCEsHz6ABYzk4p9PZTno7IKIS2CiG3cBSQqve0AEn7r
jyRQ6TSOkwDHJkRyHelce8LKZ9JfsARYRU3tmV5pJ0CHGRUjXSd//gWaL93Mb7S8
DV9lKDXE2mLHm8lOlo5SScxeRL+2KjxZjGSIRaL+ALtE/2xeNpY4JDKReWEC+bo4
HBm/TC6/mRudyW8qeZI3u3SwOSPeo0N5sUzsaXTcjQNIz1j818vtllGTRxepsgsT
rrVXtfsTno1Nug9D6W4fzdsmRvBTRxfbEZVQ89lfAgMBAAGjgZMwgZAwCQYDVR0T
BAIwADAdBgNVHQ4EFgQUFP1aOlE6Se7QTOy/nk7JCCZ3/pYwQgYDVR0jBDswOYAU
c4lYvbfbDv6yuKju2QsnnCU6kW+hFqQUMBIxEDAOBgNVBAMMB1JvblNhZmWCCQDL
2OT6Skt8CDATBgNVHSUEDDAKBggrBgEFBQcDAjALBgNVHQ8EBAMCB4AwDQYJKoZI
hvcNAQELBQADggEBAGRSLGamu+7LOg6+eLyX72FsDB6lUzjVDZzQ1CgH/8c+WTtJ
3MJJoS3VrxEqdRsi8lMZw2PUCgPd76nEglWUvyFyMA1AXV7UdPbNsWW2U4SaD0wx
aQpsOiRZT9VDQqJh0RcNePw9tChCNvFeeBMY9ZIH6dvoIxrlm8USGZf+pU5/KoR9
UTYDwe/t2JtAggHsG3iUDwvB9NuDMvRLzdCoAF7/jPMT+TNRTlPZaerVBf6h1uYc
o1C50RD1GnK9zVdwvwS2Cg2b/C+CqUdYP7M7XBt56hcz6r2MiteLHeEfesRD8u45
bBDkBT2TFaMieH4HJmGCST7+GFgJPqXq3ypGFYg=
-----END CERTIFICATE-----
